ASxxxx Linker V03.00 + NoICE + sdld,  page 1.
Hexadecimal  [32-Bits]

Area                                    Addr        Size        Decimal Bytes (Attributes)
--------------------------------        ----        ----        ------- ----- ------------
.  .ABS.                            00000000    00000000 =           0. bytes (ABS,CON)

      Value  Global                              Global Defined In Module
      -----  --------------------------------   ------------------------
     00000000  .__.ABS.                           _fslt
     00000000  l_CABS                          
     00000000  l_DABS                          
     00000000  l_DATA                          
     00000000  l__CODE                         
     00000000  s_CABS                          
     00000000  s_DABS                          
     00000000  s__CODE                         
     00000001  l_SSEG                          
     00000001  s_DATA                          
     00000001  s_INITIALIZED                   
     00000003  l_GSFINAL                       
     00000007  l_HOME                          
     0000000F  l_INITIALIZED                   
     0000000F  l_INITIALIZER                   
     0000001A  l_GSINIT                        
     00000066  l_CONST                         
     00000CDC  l_CODE                          
     00008000  s_HOME                          
     00008007  s_GSINIT                        
     00008021  s_GSFINAL                       
     00008024  s_CONST                         
     0000808A  s_INITIALIZER                   
     00008099  s_CODE                          
     00008D75  s_SSEG                          

ASxxxx Linker V03.00 + NoICE + sdld,  page 2.
Hexadecimal  [32-Bits]

Area                                    Addr        Size        Decimal Bytes (Attributes)
--------------------------------        ----        ----        ------- ----- ------------
INITIALIZED                         00000001    0000000F =          15. bytes (REL,CON)

      Value  Global                              Global Defined In Module
      -----  --------------------------------   ------------------------
     00000001  _AD_REG_ADDRESS                    AD9833
     00000006  _AD_REG_VAL                        AD9833

ASxxxx Linker V03.00 + NoICE + sdld,  page 3.
Hexadecimal  [32-Bits]

Area                                    Addr        Size        Decimal Bytes (Attributes)
--------------------------------        ----        ----        ------- ----- ------------
HOME                                00008000    00000007 =           7. bytes (REL,CON)

      Value  Global                              Global Defined In Module
      -----  --------------------------------   ------------------------
ASxxxx Linker V03.00 + NoICE + sdld,  page 4.
Hexadecimal  [32-Bits]

Area                                    Addr        Size        Decimal Bytes (Attributes)
--------------------------------        ----        ----        ------- ----- ------------
GSINIT                              00008007    0000001A =          26. bytes (REL,CON)

      Value  Global                              Global Defined In Module
      -----  --------------------------------   ------------------------
ASxxxx Linker V03.00 + NoICE + sdld,  page 5.
Hexadecimal  [32-Bits]

Area                                    Addr        Size        Decimal Bytes (Attributes)
--------------------------------        ----        ----        ------- ----- ------------
GSFINAL                             00008021    00000003 =           3. bytes (REL,CON)

      Value  Global                              Global Defined In Module
      -----  --------------------------------   ------------------------
ASxxxx Linker V03.00 + NoICE + sdld,  page 6.
Hexadecimal  [32-Bits]

Area                                    Addr        Size        Decimal Bytes (Attributes)
--------------------------------        ----        ----        ------- ----- ------------
CONST                               00008024    00000066 =         102. bytes (REL,CON)

      Value  Global                              Global Defined In Module
      -----  --------------------------------   ------------------------
ASxxxx Linker V03.00 + NoICE + sdld,  page 7.
Hexadecimal  [32-Bits]

Area                                    Addr        Size        Decimal Bytes (Attributes)
--------------------------------        ----        ----        ------- ----- ------------
INITIALIZER                         0000808A    0000000F =          15. bytes (REL,CON)

      Value  Global                              Global Defined In Module
      -----  --------------------------------   ------------------------
ASxxxx Linker V03.00 + NoICE + sdld,  page 8.
Hexadecimal  [32-Bits]

Area                                    Addr        Size        Decimal Bytes (Attributes)
--------------------------------        ----        ----        ------- ----- ------------
CODE                                00008099    00000CDC =        3292. bytes (REL,CON)

      Value  Global                              Global Defined In Module
      -----  --------------------------------   ------------------------
     00008099  _TRAP_IRQHandler                   stm8s_it
     0000809A  _TLI_IRQHandler                    stm8s_it
     0000809B  _AWU_IRQHandler                    stm8s_it
     0000809C  _CLK_IRQHandler                    stm8s_it
     0000809D  _EXTI_PORTA_IRQHandler             stm8s_it
     0000809E  _EXTI_PORTB_IRQHandler             stm8s_it
     0000809F  _EXTI_PORTC_IRQHandler             stm8s_it
     000080A0  _EXTI_PORTD_IRQHandler             stm8s_it
     000080A1  _EXTI_PORTE_IRQHandler             stm8s_it
     000080A2  _SPI_IRQHandler                    stm8s_it
     000080A3  _TIM1_UPD_OVF_TRG_BRK_IRQHandler   stm8s_it
     000080A4  _TIM1_CAP_COM_IRQHandler           stm8s_it
     000080A5  _TIM2_UPD_OVF_BRK_IRQHandler       stm8s_it
     000080A6  _TIM2_CAP_COM_IRQHandler           stm8s_it
     000080A7  _UART1_TX_IRQHandler               stm8s_it
     000080A8  _UART1_RX_IRQHandler               stm8s_it
     000080A9  _I2C_IRQHandler                    stm8s_it
     000080AA  _ADC1_IRQHandler                   stm8s_it
     000080AB  _TIM4_UPD_OVF_IRQHandler           stm8s_it
     000080AC  _EEPROM_EEC_IRQHandler             stm8s_it
     0000812F  _AD9833_WriteReg                   AD9833
     00008174  _AD9833_Init                       AD9833
     00008185  _AD9833_Reset                      AD9833
     000081A7  _AD9833_SetFreq                    AD9833
     00008211  _AD9833_SetPhase                   AD9833
     00008265  _AD9833_SetMode                    AD9833
     00008332  _main                              main
     00008518  ___fsmul                           _fsmul
     000086D5  ___fs2ulong                        _fs2ulong
     0000872B  ___fsadd                           _fsadd
     00008952  __divulong                         
     000089AC  ___fs2uint                         _fs2uint
     00008B82  ___fsdiv                           _fsdiv
     00008C13  __mullong                          
     00008C8F  ___muluint2ulong                   
     00008C94  ___mulsint2slong                   
     00008CE7  ___fslt                            _fslt

ASxxxx Linker V03.00 + NoICE + sdld,  page 9.
Hexadecimal  [32-Bits]

Area                                    Addr        Size        Decimal Bytes (Attributes)
--------------------------------        ----        ----        ------- ----- ------------
SSEG                                00008D75    00000001 =           1. bytes (REL,CON)

      Value  Global                              Global Defined In Module
      -----  --------------------------------   ------------------------
ASxxxx Linker V03.00 + NoICE + sdld,  page 10.

Files Linked                              [ module(s) ]

dist/stm8s_it.rel                         [ stm8s_it ]
dist/AD9833.rel                           [ AD9833 ]
dist/main.rel                             [ main ]


Libraries Linked                          [ object file ]

/usr/bin/../share/sdcc/lib/stm8/stm8.lib  [ _fsmul.rel ]
/usr/bin/../share/sdcc/lib/stm8/stm8.lib  [ _fs2ulong.rel ]
/usr/bin/../share/sdcc/lib/stm8/stm8.lib  [ _fsadd.rel ]
/usr/bin/../share/sdcc/lib/stm8/stm8.lib  [ _divulong.rel ]
/usr/bin/../share/sdcc/lib/stm8/stm8.lib  [ _fs2uint.rel ]
/usr/bin/../share/sdcc/lib/stm8/stm8.lib  [ _fsdiv.rel ]
/usr/bin/../share/sdcc/lib/stm8/stm8.lib  [ _mullong.rel ]
/usr/bin/../share/sdcc/lib/stm8/stm8.lib  [ __mulsint2slong.rel ]
/usr/bin/../share/sdcc/lib/stm8/stm8.lib  [ _fslt.rel ]

ASxxxx Linker V03.00 + NoICE + sdld,  page 11.

User Base Address Definitions

HOME = 0x8000
DATA = 0x0001

